; ModuleID = '33/778.c'
source_filename = "33/778.c"
target datalayout = "e-m:e-p270:32:32-p271:32:32-p272:64:64-i64:64-f80:128-n8:16:32:64-S128"
target triple = "x86_64-pc-linux-gnu"

@.str = private unnamed_addr constant [4 x i8] c"%d\0A\00", align 1
@.str.1 = private unnamed_addr constant [4 x i8] c"%s\0A\00", align 1

; Function Attrs: noinline nounwind uwtable
define dso_local i32 @main() #0 {
  %1 = alloca i32, align 4
  %2 = alloca [260 x i8], align 16
  %3 = alloca i8*, align 8
  %4 = alloca [260 x i8], align 16
  %5 = alloca i32, align 4
  %6 = alloca i32, align 4
  %7 = alloca i32, align 4
  store i32 0, i32* %1, align 4
  %8 = call i32 (i8*, ...) @__isoc99_scanf(i8* getelementptr inbounds ([4 x i8], [4 x i8]* @.str, i64 0, i64 0), i32* %5)
  store i32 0, i32* %7, align 4
  br label %9

9:                                                ; preds = %67, %0
  %10 = load i32, i32* %7, align 4
  %11 = load i32, i32* %5, align 4
  %12 = icmp slt i32 %10, %11
  br i1 %12, label %13, label %70

13:                                               ; preds = %9
  %14 = getelementptr inbounds [260 x i8], [260 x i8]* %2, i64 0, i64 0
  %15 = call i32 (i8*, ...) bitcast (i32 (...)* @gets to i32 (i8*, ...)*)(i8* %14)
  store i32 0, i32* %6, align 4
  %16 = getelementptr inbounds [260 x i8], [260 x i8]* %2, i64 0, i64 0
  store i8* %16, i8** %3, align 8
  br label %17

17:                                               ; preds = %58, %13
  %18 = load i8*, i8** %3, align 8
  %19 = load i8, i8* %18, align 1
  %20 = sext i8 %19 to i32
  %21 = icmp ne i32 %20, 0
  br i1 %21, label %22, label %61

22:                                               ; preds = %17
  %23 = load i8*, i8** %3, align 8
  %24 = load i8, i8* %23, align 1
  %25 = sext i8 %24 to i32
  %26 = icmp eq i32 %25, 65
  br i1 %26, label %27, label %31

27:                                               ; preds = %22
  %28 = load i32, i32* %6, align 4
  %29 = sext i32 %28 to i64
  %30 = getelementptr inbounds [260 x i8], [260 x i8]* %4, i64 0, i64 %29
  store i8 84, i8* %30, align 1
  br label %55

31:                                               ; preds = %22
  %32 = load i8*, i8** %3, align 8
  %33 = load i8, i8* %32, align 1
  %34 = sext i8 %33 to i32
  %35 = icmp eq i32 %34, 84
  br i1 %35, label %36, label %40

36:                                               ; preds = %31
  %37 = load i32, i32* %6, align 4
  %38 = sext i32 %37 to i64
  %39 = getelementptr inbounds [260 x i8], [260 x i8]* %4, i64 0, i64 %38
  store i8 65, i8* %39, align 1
  br label %54

40:                                               ; preds = %31
  %41 = load i8*, i8** %3, align 8
  %42 = load i8, i8* %41, align 1
  %43 = sext i8 %42 to i32
  %44 = icmp eq i32 %43, 71
  br i1 %44, label %45, label %49

45:                                               ; preds = %40
  %46 = load i32, i32* %6, align 4
  %47 = sext i32 %46 to i64
  %48 = getelementptr inbounds [260 x i8], [260 x i8]* %4, i64 0, i64 %47
  store i8 67, i8* %48, align 1
  br label %53

49:                                               ; preds = %40
  %50 = load i32, i32* %6, align 4
  %51 = sext i32 %50 to i64
  %52 = getelementptr inbounds [260 x i8], [260 x i8]* %4, i64 0, i64 %51
  store i8 71, i8* %52, align 1
  br label %53

53:                                               ; preds = %49, %45
  br label %54

54:                                               ; preds = %53, %36
  br label %55

55:                                               ; preds = %54, %27
  %56 = load i32, i32* %6, align 4
  %57 = add nsw i32 %56, 1
  store i32 %57, i32* %6, align 4
  br label %58

58:                                               ; preds = %55
  %59 = load i8*, i8** %3, align 8
  %60 = getelementptr inbounds i8, i8* %59, i32 1
  store i8* %60, i8** %3, align 8
  br label %17

61:                                               ; preds = %17
  %62 = load i32, i32* %6, align 4
  %63 = sext i32 %62 to i64
  %64 = getelementptr inbounds [260 x i8], [260 x i8]* %4, i64 0, i64 %63
  store i8 0, i8* %64, align 1
  %65 = getelementptr inbounds [260 x i8], [260 x i8]* %4, i64 0, i64 0
  %66 = call i32 (i8*, ...) @printf(i8* getelementptr inbounds ([4 x i8], [4 x i8]* @.str.1, i64 0, i64 0), i8* %65)
  br label %67

67:                                               ; preds = %61
  %68 = load i32, i32* %7, align 4
  %69 = add nsw i32 %68, 1
  store i32 %69, i32* %7, align 4
  br label %9

70:                                               ; preds = %9
  ret i32 0
}

declare dso_local i32 @__isoc99_scanf(i8*, ...) #1

declare dso_local i32 @gets(...) #1

declare dso_local i32 @printf(i8*, ...) #1


!llvm.module.flags = !{!0}
!llvm.ident = !{!1}

!0 = !{i32 1, !"wchar_size", i32 4}
!1 = !{!"clang version 10.0.0-4ubuntu1 "}
